target datalayout = "e-m:e-p270:32:32-p271:32:32-p272:64:64-i64:64-i128:128-f80:128-n8:16:32:64-S128"
target triple = "x86_64-pc-linux-gnu"

%struct.wtap = type { ptr, ptr, i8, i32, i32, ptr, ptr, ptr, i32, ptr, ptr, ptr, ptr, ptr, ptr, ptr, ptr, ptr, ptr, i32, i32, ptr, ptr, ptr, ptr }
%struct.capsa_t = type { i16, i32, i32, i64, [200 x i32] }
%struct.capsarec_hdr = type { i32, i32, i32, i32, i16, i16, i16, i16, i8, i8, i16, i32 }
%struct.pbrec_hdr = type { i16, i16, i16, i16, i16, i16, i32, i32, i32, i32, i32 }
%struct.wtap_rec = type { i32, i32, i32, %struct.nstime_t, i32, %struct.nstime_t, i8, %union.anon, ptr, i8, %struct.Buffer, %struct.Buffer }
%struct.nstime_t = type { i64, i32 }
%union.anon = type { %struct.wtap_packet_header }
%struct.wtap_packet_header = type { i32, i32, i32, i32, %union.wtap_pseudo_header }
%union.wtap_pseudo_header = type { %struct.erf_mc_phdr }
%struct.erf_mc_phdr = type { %struct.erf_phdr, [16 x %struct.erf_ehdr], %union.anon.1 }
%struct.erf_phdr = type { i64, i8, i8, i16, i16, i16 }
%struct.erf_ehdr = type { i64 }
%union.anon.1 = type { i32 }
%struct.Buffer = type { ptr, i64, i64, i64 }
%struct.eth_phdr = type { i32 }

@.str.3 = private unnamed_addr constant [1 x i8] zeroinitializer, align 1
@.str.4 = private unnamed_addr constant [16 x i8] c"wiretap/capsa.c\00", align 1
@__func__.capsa_read_packet = private unnamed_addr constant [18 x i8] c"capsa_read_packet\00", align 1
@.str.5 = private unnamed_addr constant [31 x i8] c"assertion \22not reached\22 failed\00", align 1
@.str.6 = private unnamed_addr constant [67 x i8] c"capsa: File has %u-byte original length, bigger than maximum of %u\00", align 1
@.str.7 = private unnamed_addr constant [58 x i8] c"capsa: File has %u-byte packet, bigger than maximum of %u\00", align 1
@.str.8 = private unnamed_addr constant [86 x i8] c"capsa: File has %u-byte packet with %u-byte record header, bigger than record size %u\00", align 1

; Function Attrs: null_pointer_is_valid sspstrong uwtable
define internal i32 @capsa_read_packet(ptr noundef %0, ptr noundef %1, ptr noundef %2, ptr noundef %3, ptr noundef %4) #0 {
  %6 = alloca i32, align 4
  %7 = alloca ptr, align 8
  %8 = alloca ptr, align 8
  %9 = alloca ptr, align 8
  %10 = alloca ptr, align 8
  %11 = alloca ptr, align 8
  %12 = alloca ptr, align 8
  %13 = alloca %struct.capsarec_hdr, align 4
  %14 = alloca %struct.pbrec_hdr, align 4
  %15 = alloca i32, align 4
  %16 = alloca i32, align 4
  %17 = alloca i32, align 4
  %18 = alloca i32, align 4
  %19 = alloca i64, align 8
  %20 = alloca i32, align 4
  store ptr %0, ptr %7, align 8
  store ptr %1, ptr %8, align 8
  store ptr %2, ptr %9, align 8
  store ptr %3, ptr %10, align 8
  store ptr %4, ptr %11, align 8
  call void @llvm.lifetime.start.p0(i64 8, ptr %12) #8
  %21 = load ptr, ptr %7, align 8
  %22 = getelementptr inbounds nuw %struct.wtap, ptr %21, i32 0, i32 13
  %23 = load ptr, ptr %22, align 8
  store ptr %23, ptr %12, align 8
  call void @llvm.lifetime.start.p0(i64 32, ptr %13) #8
  call void @llvm.lifetime.start.p0(i64 32, ptr %14) #8
  call void @llvm.lifetime.start.p0(i64 4, ptr %15) #8
  call void @llvm.lifetime.start.p0(i64 4, ptr %16) #8
  call void @llvm.lifetime.start.p0(i64 4, ptr %17) #8
  call void @llvm.lifetime.start.p0(i64 4, ptr %18) #8
  call void @llvm.lifetime.start.p0(i64 8, ptr %19) #8
  %24 = load ptr, ptr %12, align 8
  %25 = getelementptr inbounds nuw %struct.capsa_t, ptr %24, i32 0, i32 0
  %26 = load i16, ptr %25, align 8
  %27 = zext i16 %26 to i32
  switch i32 %27, label %100 [
    i32 1, label %28
    i32 2, label %76
  ]

28:                                               ; preds = %5
  %29 = load ptr, ptr %8, align 8
  %30 = load ptr, ptr %10, align 8
  %31 = load ptr, ptr %11, align 8
  %32 = call zeroext i1 @wtap_read_bytes_or_eof(ptr noundef %29, ptr noundef %13, i32 noundef 32, ptr noundef %30, ptr noundef %31)
  br i1 %32, label %34, label %33

33:                                               ; preds = %28
  store i32 -1, ptr %6, align 4
  store i32 1, ptr %20, align 4
  br label %186

34:                                               ; preds = %28
  %35 = getelementptr inbounds nuw %struct.capsarec_hdr, ptr %13, i32 0, i32 4
  %36 = load i16, ptr %35, align 4
  %37 = zext i16 %36 to i32
  store i32 %37, ptr %15, align 4
  %38 = getelementptr inbounds nuw %struct.capsarec_hdr, ptr %13, i32 0, i32 6
  %39 = load i16, ptr %38, align 4
  %40 = zext i16 %39 to i32
  store i32 %40, ptr %17, align 4
  %41 = getelementptr inbounds nuw %struct.capsarec_hdr, ptr %13, i32 0, i32 5
  %42 = load i16, ptr %41, align 2
  %43 = zext i16 %42 to i32
  store i32 %43, ptr %16, align 4
  store i32 32, ptr %18, align 4
  %44 = getelementptr inbounds nuw %struct.capsarec_hdr, ptr %13, i32 0, i32 3
  %45 = load i32, ptr %44, align 4
  %46 = zext i32 %45 to i64
  %47 = shl i64 %46, 32
  %48 = getelementptr inbounds nuw %struct.capsarec_hdr, ptr %13, i32 0, i32 2
  %49 = load i32, ptr %48, align 4
  %50 = zext i32 %49 to i64
  %51 = add i64 %47, %50
  store i64 %51, ptr %19, align 8
  %52 = load ptr, ptr %8, align 8
  %53 = getelementptr inbounds nuw %struct.capsarec_hdr, ptr %13, i32 0, i32 8
  %54 = load i8, ptr %53, align 4
  %55 = zext i8 %54 to i32
  %56 = getelementptr inbounds nuw %struct.capsarec_hdr, ptr %13, i32 0, i32 9
  %57 = load i8, ptr %56, align 1
  %58 = zext i8 %57 to i32
  %59 = add i32 %55, %58
  %60 = mul i32 %59, 4
  %61 = load ptr, ptr %10, align 8
  %62 = load ptr, ptr %11, align 8
  %63 = call zeroext i1 @wtap_read_bytes(ptr noundef %52, ptr noundef null, i32 noundef %60, ptr noundef %61, ptr noundef %62)
  br i1 %63, label %65, label %64

64:                                               ; preds = %34
  store i32 -1, ptr %6, align 4
  store i32 1, ptr %20, align 4
  br label %186

65:                                               ; preds = %34
  %66 = getelementptr inbounds nuw %struct.capsarec_hdr, ptr %13, i32 0, i32 8
  %67 = load i8, ptr %66, align 4
  %68 = zext i8 %67 to i32
  %69 = getelementptr inbounds nuw %struct.capsarec_hdr, ptr %13, i32 0, i32 9
  %70 = load i8, ptr %69, align 1
  %71 = zext i8 %70 to i32
  %72 = add i32 %68, %71
  %73 = mul i32 %72, 4
  %74 = load i32, ptr %18, align 4
  %75 = add i32 %74, %73
  store i32 %75, ptr %18, align 4
  br label %101

76:                                               ; preds = %5
  %77 = load ptr, ptr %8, align 8
  %78 = load ptr, ptr %10, align 8
  %79 = load ptr, ptr %11, align 8
  %80 = call zeroext i1 @wtap_read_bytes_or_eof(ptr noundef %77, ptr noundef %14, i32 noundef 32, ptr noundef %78, ptr noundef %79)
  br i1 %80, label %82, label %81

81:                                               ; preds = %76
  store i32 -1, ptr %6, align 4
  store i32 1, ptr %20, align 4
  br label %186

82:                                               ; preds = %76
  %83 = getelementptr inbounds nuw %struct.pbrec_hdr, ptr %14, i32 0, i32 0
  %84 = load i16, ptr %83, align 4
  %85 = zext i16 %84 to i32
  store i32 %85, ptr %15, align 4
  %86 = getelementptr inbounds nuw %struct.pbrec_hdr, ptr %14, i32 0, i32 2
  %87 = load i16, ptr %86, align 4
  %88 = zext i16 %87 to i32
  store i32 %88, ptr %17, align 4
  %89 = getelementptr inbounds nuw %struct.pbrec_hdr, ptr %14, i32 0, i32 1
  %90 = load i16, ptr %89, align 2
  %91 = zext i16 %90 to i32
  store i32 %91, ptr %16, align 4
  store i32 32, ptr %18, align 4
  %92 = getelementptr inbounds nuw %struct.pbrec_hdr, ptr %14, i32 0, i32 8
  %93 = load i32, ptr %92, align 4
  %94 = zext i32 %93 to i64
  %95 = shl i64 %94, 32
  %96 = getelementptr inbounds nuw %struct.pbrec_hdr, ptr %14, i32 0, i32 7
  %97 = load i32, ptr %96, align 4
  %98 = zext i32 %97 to i64
  %99 = add i64 %95, %98
  store i64 %99, ptr %19, align 8
  br label %101

100:                                              ; preds = %5
  call void (ptr, i32, ptr, i64, ptr, ptr, ...) @ws_log_fatal_full(ptr noundef @.str.3, i32 noundef 7, ptr noundef @.str.4, i64 noundef 372, ptr noundef @__func__.capsa_read_packet, ptr noundef @.str.5) #12
  unreachable

101:                                              ; preds = %82, %65
  %102 = load i32, ptr %17, align 4
  %103 = icmp ugt i32 %102, 262144
  br i1 %103, label %104, label %109

104:                                              ; preds = %101
  %105 = load ptr, ptr %10, align 8
  store i32 -13, ptr %105, align 4
  %106 = load i32, ptr %17, align 4
  %107 = call noalias ptr (ptr, ptr, ...) @wmem_strdup_printf(ptr noundef null, ptr noundef @.str.6, i32 noundef %106, i32 noundef 262144)
  %108 = load ptr, ptr %11, align 8
  store ptr %107, ptr %108, align 8
  store i32 -1, ptr %6, align 4
  store i32 1, ptr %20, align 4
  br label %186

109:                                              ; preds = %101
  %110 = load i32, ptr %16, align 4
  %111 = icmp ugt i32 %110, 262144
  br i1 %111, label %112, label %117

112:                                              ; preds = %109
  %113 = load ptr, ptr %10, align 8
  store i32 -13, ptr %113, align 4
  %114 = load i32, ptr %16, align 4
  %115 = call noalias ptr (ptr, ptr, ...) @wmem_strdup_printf(ptr noundef null, ptr noundef @.str.7, i32 noundef %114, i32 noundef 262144)
  %116 = load ptr, ptr %11, align 8
  store ptr %115, ptr %116, align 8
  store i32 -1, ptr %6, align 4
  store i32 1, ptr %20, align 4
  br label %186

117:                                              ; preds = %109
  %118 = load i32, ptr %18, align 4
  %119 = load i32, ptr %16, align 4
  %120 = add i32 %118, %119
  %121 = load i32, ptr %15, align 4
  %122 = icmp ugt i32 %120, %121
  br i1 %122, label %123, label %130

123:                                              ; preds = %117
  %124 = load ptr, ptr %10, align 8
  store i32 -13, ptr %124, align 4
  %125 = load i32, ptr %16, align 4
  %126 = load i32, ptr %18, align 4
  %127 = load i32, ptr %15, align 4
  %128 = call noalias ptr (ptr, ptr, ...) @wmem_strdup_printf(ptr noundef null, ptr noundef @.str.8, i32 noundef %125, i32 noundef %126, i32 noundef %127)
  %129 = load ptr, ptr %11, align 8
  store ptr %128, ptr %129, align 8
  store i32 -1, ptr %6, align 4
  store i32 1, ptr %20, align 4
  br label %186

130:                                              ; preds = %117
  %131 = load i32, ptr %17, align 4
  %132 = load i32, ptr %16, align 4
  %133 = add i32 %132, 4
  %134 = icmp eq i32 %131, %133
  br i1 %134, label %135, label %137

135:                                              ; preds = %130
  %136 = load i32, ptr %16, align 4
  store i32 %136, ptr %17, align 4
  br label %137

137:                                              ; preds = %135, %130
  %138 = load ptr, ptr %9, align 8
  %139 = getelementptr inbounds nuw %struct.wtap_rec, ptr %138, i32 0, i32 7
  %140 = getelementptr inbounds nuw %struct.wtap_packet_header, ptr %139, i32 0, i32 4
  %141 = getelementptr inbounds nuw %struct.eth_phdr, ptr %140, i32 0, i32 0
  store i32 0, ptr %141, align 8
  %142 = load ptr, ptr %9, align 8
  %143 = getelementptr inbounds nuw %struct.wtap_rec, ptr %142, i32 0, i32 0
  store i32 0, ptr %143, align 8
  %144 = call ptr @wtap_block_create(i32 noundef 5)
  %145 = load ptr, ptr %9, align 8
  %146 = getelementptr inbounds nuw %struct.wtap_rec, ptr %145, i32 0, i32 8
  store ptr %144, ptr %146, align 8
  %147 = load i32, ptr %16, align 4
  %148 = load ptr, ptr %9, align 8
  %149 = getelementptr inbounds nuw %struct.wtap_rec, ptr %148, i32 0, i32 7
  %150 = getelementptr inbounds nuw %struct.wtap_packet_header, ptr %149, i32 0, i32 0
  store i32 %147, ptr %150, align 8
  %151 = load i32, ptr %17, align 4
  %152 = load ptr, ptr %9, align 8
  %153 = getelementptr inbounds nuw %struct.wtap_rec, ptr %152, i32 0, i32 7
  %154 = getelementptr inbounds nuw %struct.wtap_packet_header, ptr %153, i32 0, i32 1
  store i32 %151, ptr %154, align 4
  %155 = load ptr, ptr %9, align 8
  %156 = getelementptr inbounds nuw %struct.wtap_rec, ptr %155, i32 0, i32 1
  store i32 3, ptr %156, align 4
  %157 = load i64, ptr %19, align 8
  %158 = udiv i64 %157, 1000000
  %159 = load ptr, ptr %9, align 8
  %160 = getelementptr inbounds nuw %struct.wtap_rec, ptr %159, i32 0, i32 3
  %161 = getelementptr inbounds nuw %struct.nstime_t, ptr %160, i32 0, i32 0
  store i64 %158, ptr %161, align 8
  %162 = load i64, ptr %19, align 8
  %163 = urem i64 %162, 1000000
  %164 = trunc i64 %163 to i32
  %165 = mul i32 %164, 1000
  %166 = load ptr, ptr %9, align 8
  %167 = getelementptr inbounds nuw %struct.wtap_rec, ptr %166, i32 0, i32 3
  %168 = getelementptr inbounds nuw %struct.nstime_t, ptr %167, i32 0, i32 1
  store i32 %165, ptr %168, align 8
  %169 = load ptr, ptr %8, align 8
  %170 = load ptr, ptr %9, align 8
  %171 = getelementptr inbounds nuw %struct.wtap_rec, ptr %170, i32 0, i32 11
  %172 = load ptr, ptr %9, align 8
  %173 = getelementptr inbounds nuw %struct.wtap_rec, ptr %172, i32 0, i32 7
  %174 = getelementptr inbounds nuw %struct.wtap_packet_header, ptr %173, i32 0, i32 0
  %175 = load i32, ptr %174, align 8
  %176 = load ptr, ptr %10, align 8
  %177 = load ptr, ptr %11, align 8
  %178 = call zeroext i1 @wtap_read_bytes_buffer(ptr noundef %169, ptr noundef %171, i32 noundef %175, ptr noundef %176, ptr noundef %177)
  br i1 %178, label %180, label %179

179:                                              ; preds = %137
  store i32 -1, ptr %6, align 4
  store i32 1, ptr %20, align 4
  br label %186

180:                                              ; preds = %137
  %181 = load i32, ptr %15, align 4
  %182 = load i32, ptr %18, align 4
  %183 = load i32, ptr %16, align 4
  %184 = add i32 %182, %183
  %185 = sub i32 %181, %184
  store i32 %185, ptr %6, align 4
  store i32 1, ptr %20, align 4
  br label %186

186:                                              ; preds = %180, %179, %123, %112, %104, %81, %64, %33
  call void @llvm.lifetime.end.p0(i64 8, ptr %19) #8
  call void @llvm.lifetime.end.p0(i64 4, ptr %18) #8
  call void @llvm.lifetime.end.p0(i64 4, ptr %17) #8
  call void @llvm.lifetime.end.p0(i64 4, ptr %16) #8
  call void @llvm.lifetime.end.p0(i64 4, ptr %15) #8
  call void @llvm.lifetime.end.p0(i64 32, ptr %14) #8
  call void @llvm.lifetime.end.p0(i64 32, ptr %13) #8
  call void @llvm.lifetime.end.p0(i64 8, ptr %12) #8
  %187 = load i32, ptr %6, align 4
  ret i32 %187
}