; Function Attrs: null_pointer_is_valid sspstrong uwtable
define internal fastcc range(i32 -1, 65504) i32 @capsa_read_packet(i16 %.96.val.0.val, ptr noundef %0, ptr noundef %1, ptr noundef %2, ptr noundef %3) unnamed_addr #0 {
  %5 = alloca %struct.capsarec_hdr, align 4
  %6 = alloca %struct.pbrec_hdr, align 4
  call void @llvm.lifetime.start.p0(i64 32, ptr nonnull %5) #6
  call void @llvm.lifetime.start.p0(i64 32, ptr nonnull %6) #6
  switch i16 %.96.val.0.val, label %45 [
    i16 1, label %7
    i16 2, label %35
  ]

7:                                                ; preds = %4
  %8 = call zeroext i1 @wtap_read_bytes_or_eof(ptr noundef %0, ptr noundef nonnull %5, i32 noundef 32, ptr noundef %2, ptr noundef %3)
  br i1 %8, label %9, label %69

9:                                                ; preds = %7
  %10 = getelementptr inbounds nuw i8, ptr %5, i64 16
  %11 = load i16, ptr %10, align 4
  %12 = getelementptr inbounds nuw i8, ptr %5, i64 20
  %13 = load i16, ptr %12, align 4
  %14 = getelementptr inbounds nuw i8, ptr %5, i64 18
  %15 = load i16, ptr %14, align 2
  %16 = getelementptr inbounds nuw i8, ptr %5, i64 8
  %17 = load i64, ptr %16, align 4
  %18 = getelementptr inbounds nuw i8, ptr %5, i64 24
  %19 = load i8, ptr %18, align 4
  %20 = zext i8 %19 to i32
  %21 = getelementptr inbounds nuw i8, ptr %5, i64 25
  %22 = load i8, ptr %21, align 1
  %23 = zext i8 %22 to i32
  %24 = add nuw nsw i32 %23, %20
  %25 = shl nuw nsw i32 %24, 2
  %26 = call zeroext i1 @wtap_read_bytes(ptr noundef %0, ptr noundef null, i32 noundef %25, ptr noundef %2, ptr noundef %3)
  br i1 %26, label %27, label %69

27:                                               ; preds = %9
  %28 = load i8, ptr %18, align 4
  %29 = zext i8 %28 to i32
  %30 = load i8, ptr %21, align 1
  %31 = zext i8 %30 to i32
  %32 = add nuw nsw i32 %31, %29
  %33 = shl nuw nsw i32 %32, 2
  %34 = add nuw nsw i32 %33, 32
  br label %46

35:                                               ; preds = %4
  %36 = call zeroext i1 @wtap_read_bytes_or_eof(ptr noundef %0, ptr noundef nonnull %6, i32 noundef 32, ptr noundef %2, ptr noundef %3)
  br i1 %36, label %37, label %69

37:                                               ; preds = %35
  %38 = load i16, ptr %6, align 4
  %39 = getelementptr inbounds nuw i8, ptr %6, i64 4
  %40 = load i16, ptr %39, align 4
  %41 = getelementptr inbounds nuw i8, ptr %6, i64 2
  %42 = load i16, ptr %41, align 2
  %43 = getelementptr inbounds nuw i8, ptr %6, i64 16
  %44 = load i64, ptr %43, align 4
  br label %46

45:                                               ; preds = %4
  tail call void (ptr, i32, ptr, i64, ptr, ptr, ...) @ws_log_fatal_full(ptr noundef nonnull @.str.3, i32 noundef 7, ptr noundef nonnull @.str.4, i64 noundef 372, ptr noundef nonnull @__func__.capsa_read_packet, ptr noundef nonnull @.str.5) #8
  unreachable

46:                                               ; preds = %37, %27
  %.054.in = phi i16 [ %38, %37 ], [ %11, %27 ]
  %.053.in = phi i16 [ %42, %37 ], [ %15, %27 ]
  %.052.in = phi i16 [ %40, %37 ], [ %13, %27 ]
  %.051 = phi i32 [ 32, %37 ], [ %34, %27 ]
  %.0 = phi i64 [ %44, %37 ], [ %17, %27 ]
  %.053 = zext i16 %.053.in to i32
  %.054 = zext i16 %.054.in to i32
  %47 = add nuw nsw i32 %.051, %.053
  %48 = icmp samesign ugt i32 %47, %.054
  br i1 %48, label %49, label %51

49:                                               ; preds = %46
  store i32 -13, ptr %2, align 4
  %50 = call noalias ptr (ptr, ptr, ...) @wmem_strdup_printf(ptr noundef null, ptr noundef nonnull @.str.8, i32 noundef %.053, i32 noundef %.051, i32 noundef %.054)
  store ptr %50, ptr %3, align 8
  br label %69

51:                                               ; preds = %46
  %.052 = zext i16 %.052.in to i32
  %52 = add nuw nsw i32 %.053, 4
  %53 = icmp eq i32 %52, %.052
  %spec.select = select i1 %53, i32 %.053, i32 %.052
  %54 = getelementptr inbounds nuw i8, ptr %1, i64 64
  %55 = getelementptr inbounds nuw i8, ptr %1, i64 80
  store i32 0, ptr %55, align 8
  store i32 0, ptr %1, align 8
  %56 = call ptr @wtap_block_create(i32 noundef 5)
  %57 = getelementptr inbounds nuw i8, ptr %1, i64 232
  store ptr %56, ptr %57, align 8
  store i32 %.053, ptr %54, align 8
  %58 = getelementptr inbounds nuw i8, ptr %1, i64 68
  store i32 %spec.select, ptr %58, align 4
  %59 = getelementptr inbounds nuw i8, ptr %1, i64 4
  store i32 3, ptr %59, align 4
  %60 = udiv i64 %.0, 1000000
  %61 = getelementptr inbounds nuw i8, ptr %1, i64 16
  store i64 %60, ptr %61, align 8
  %62 = urem i64 %.0, 1000000
  %63 = trunc nuw nsw i64 %62 to i32
  %64 = mul nuw nsw i32 %63, 1000
  %65 = getelementptr inbounds nuw i8, ptr %1, i64 24
  store i32 %64, ptr %65, align 8
  %66 = getelementptr inbounds nuw i8, ptr %1, i64 280
  %67 = call zeroext i1 @wtap_read_bytes_buffer(ptr noundef %0, ptr noundef nonnull %66, i32 noundef %.053, ptr noundef %2, ptr noundef %3)
  %68 = sub nuw nsw i32 %.054, %47
  %spec.select57 = select i1 %67, i32 %68, i32 -1
  br label %69

69:                                               ; preds = %51, %35, %9, %7, %49
  %.055 = phi i32 [ -1, %49 ], [ -1, %7 ], [ -1, %9 ], [ -1, %35 ], [ %spec.select57, %51 ]
  call void @llvm.lifetime.end.p0(i64 32, ptr nonnull %6) #6
  call void @llvm.lifetime.end.p0(i64 32, ptr nonnull %5) #6
  ret i32 %.055
}